target datalayout = "e-m:e-p270:32:32-p271:32:32-p272:64:64-i64:64-i128:128-f80:128-n8:16:32:64-S128"
target triple = "x86_64-pc-linux-gnu"

%"class.casadi::SharedObject" = type { ptr }
%"class.casadi::MX" = type { %"class.casadi::SharedObject" }

@_ZN6casadi2MXC1EPNS_6MXNodeEbbbb = unnamed_addr alias void (ptr, ptr, i1, i1, i1, i1), ptr @_ZN6casadi2MXC2EPNS_6MXNodeEbbbb
@_ZN6casadi2MXC1ERKNS_8SparsityEdb = unnamed_addr alias void (ptr, ptr, double, i1), ptr @_ZN6casadi2MXC2ERKNS_8SparsityEdb

; Function Attrs: mustprogress uwtable
define void @_ZN6casadi2MX6createEPNS_6MXNodeE(ptr dead_on_unwind noalias writable sret(%"class.casadi::MX") align 8 %0, ptr noundef %1) #4 align 2 {
  %3 = alloca ptr, align 8
  %4 = alloca ptr, align 8
  store ptr %0, ptr %3, align 8
  store ptr %1, ptr %4, align 8
  %5 = load ptr, ptr %4, align 8
  call void @_ZN6casadi2MXC1EPNS_6MXNodeEbbbb(ptr noundef nonnull align 8 dereferenceable(8) %0, ptr noundef %5, i1 noundef zeroext false, i1 noundef zeroext false, i1 noundef zeroext false, i1 noundef zeroext false)
  ret void
}

; Function Attrs: mustprogress uwtable
define weak_odr hidden void @_ZN6casadi13GenericMatrixINS_2MXEE5zerosERKNS_8SparsityE(ptr dead_on_unwind noalias writable sret(%"class.casadi::MX") align 8 %0, ptr noundef nonnull align 8 dereferenceable(8) %1) #4 comdat align 2 {
  %3 = alloca ptr, align 8
  %4 = alloca ptr, align 8
  store ptr %0, ptr %3, align 8
  store ptr %1, ptr %4, align 8
  %5 = load ptr, ptr %4, align 8
  call void @_ZN6casadi2MXC1ERKNS_8SparsityEdb(ptr noundef nonnull align 8 dereferenceable(8) %0, ptr noundef nonnull align 8 dereferenceable(8) %5, double noundef 0.000000e+00, i1 noundef zeroext false)
  ret void
}

; Function Attrs: mustprogress uwtable
define void @_ZN6casadi2MX4_symERKNSt7__cxx1112basic_stringIcSt11char_traitsIcESaIcEEERKNS_8SparsityE(ptr dead_on_unwind noalias writable sret(%"class.casadi::MX") align 8 %0, ptr noundef nonnull align 8 dereferenceable(32) %1, ptr noundef nonnull align 8 dereferenceable(8) %2) #4 align 2 personality ptr @__gxx_personality_v0 {
  %4 = alloca ptr, align 8
  %5 = alloca ptr, align 8
  %6 = alloca ptr, align 8
  %7 = alloca ptr, align 8
  %8 = alloca i32, align 4
  store ptr %0, ptr %4, align 8
  store ptr %1, ptr %5, align 8
  store ptr %2, ptr %6, align 8
  %9 = load ptr, ptr %6, align 8
  %10 = call noundef i64 @_ZNK6casadi8Sparsity3nnzEv(ptr noundef nonnull align 8 dereferenceable(8) %9)
  %11 = icmp eq i64 %10, 0
  br i1 %11, label %12, label %14

12:                                               ; preds = %3
  %13 = load ptr, ptr %6, align 8
  call void @_ZN6casadi13GenericMatrixINS_2MXEE5zerosERKNS_8SparsityE(ptr dead_on_unwind writable sret(%"class.casadi::MX") align 8 %0, ptr noundef nonnull align 8 dereferenceable(8) %13)
  br label %23

14:                                               ; preds = %3
  %15 = call noalias noundef nonnull ptr @_Znwm(i64 noundef 96) #20
  %16 = load ptr, ptr %5, align 8
  %17 = load ptr, ptr %6, align 8
  invoke void @_ZN6casadi10SymbolicMXC1ERKNSt7__cxx1112basic_stringIcSt11char_traitsIcESaIcEEERKNS_8SparsityE(ptr noundef nonnull align 8 dereferenceable(96) %15, ptr noundef nonnull align 8 dereferenceable(32) %16, ptr noundef nonnull align 8 dereferenceable(8) %17)
          to label %18 unwind label %19

18:                                               ; preds = %14
  call void @_ZN6casadi2MX6createEPNS_6MXNodeE(ptr dead_on_unwind writable sret(%"class.casadi::MX") align 8 %0, ptr noundef %15)
  br label %23

19:                                               ; preds = %14
  %20 = landingpad { ptr, i32 }
          cleanup
  %21 = extractvalue { ptr, i32 } %20, 0
  store ptr %21, ptr %7, align 8
  %22 = extractvalue { ptr, i32 } %20, 1
  store i32 %22, ptr %8, align 4
  call void @_ZdlPv(ptr noundef %15) #21
  br label %24

23:                                               ; preds = %18, %12
  ret void

24:                                               ; preds = %19
  %25 = load ptr, ptr %7, align 8
  %26 = load i32, ptr %8, align 4
  %27 = insertvalue { ptr, i32 } poison, ptr %25, 0
  %28 = insertvalue { ptr, i32 } %27, i32 %26, 1
  resume { ptr, i32 } %28
}