; Function Attrs: mustprogress uwtable
define void @_ZN6casadi2MX4_symERKNSt7__cxx1112basic_stringIcSt11char_traitsIcESaIcEEERKNS_8SparsityE(ptr dead_on_unwind noalias writable sret(%"class.casadi::MX") align 8 %0, ptr noundef nonnull align 8 dereferenceable(32) %1, ptr noundef nonnull align 8 dereferenceable(8) %2) local_unnamed_addr #3 align 2 personality ptr @__gxx_personality_v0 {
  %4 = tail call noundef i64 @_ZNK6casadi8Sparsity3nnzEv(ptr noundef nonnull align 8 dereferenceable(8) %2)
  %5 = icmp eq i64 %4, 0
  br i1 %5, label %6, label %7

6:                                                ; preds = %3
  tail call void @_ZN6casadi2MXC1ERKNS_8SparsityEdb(ptr noundef nonnull align 8 dereferenceable(8) %0, ptr noundef nonnull align 8 dereferenceable(8) %2, double noundef 0.000000e+00, i1 noundef zeroext false)
  br label %12

7:                                                ; preds = %3
  %8 = tail call noalias noundef nonnull dereferenceable(96) ptr @_Znwm(i64 noundef 96) #29
  invoke void @_ZN6casadi10SymbolicMXC1ERKNSt7__cxx1112basic_stringIcSt11char_traitsIcESaIcEEERKNS_8SparsityE(ptr noundef nonnull align 8 dereferenceable(96) %8, ptr noundef nonnull align 8 dereferenceable(32) %1, ptr noundef nonnull align 8 dereferenceable(8) %2)
          to label %9 unwind label %10

9:                                                ; preds = %7
  tail call void @_ZN6casadi2MXC1EPNS_6MXNodeEbbbb(ptr noundef nonnull align 8 dereferenceable(8) %0, ptr noundef nonnull %8, i1 noundef zeroext false, i1 noundef zeroext false, i1 noundef zeroext false, i1 noundef zeroext false)
  br label %12

10:                                               ; preds = %7
  %11 = landingpad { ptr, i32 }
          cleanup
  tail call void @_ZdlPv(ptr noundef nonnull %8) #30
  resume { ptr, i32 } %11

12:                                               ; preds = %9, %6
  ret void
}